target datalayout = "e-m:e-p270:32:32-p271:32:32-p272:64:64-i64:64-i128:128-f80:128-n8:16:32:64-S128"
target triple = "x86_64-pc-linux-gnu"

%"class.std::__cxx11::basic_string" = type { %"struct.std::__cxx11::basic_string<char>::_Alloc_hider", i64, %union.anon }
%"struct.std::__cxx11::basic_string<char>::_Alloc_hider" = type { ptr }
%union.anon = type { i64, [8 x i8] }
%"struct.gmx::EnumerationArray.142" = type { [4 x i32] }
%"struct.gmx::EnumerationArray.143" = type { [4 x i8] }
%struct.VerletbufListSetup = type { i32, i32 }
%struct.t_inputrec = type { i32, i32, i64, i32, i64, i32, i32, i32, i32, i32, i32, i32, i32, i32, i32, i32, double, double, i8, %"class.std::vector", float, float, float, i32, i32, i32, i32, float, float, i32, float, i32, i32, i8, i8, i32, float, i32, i32, i8, %struct.PressureCouplingOptions, [3 x float], [3 x float], i32, float, float, float, float, i32, i32, float, float, float, float, i8, i32, i32, float, float, i32, float, float, i32, %"class.std::unique_ptr", i8, %"class.std::unique_ptr.5", i8, %"class.std::unique_ptr.13", i32, float, i32, i8, i32, float, float, float, i32, float, float, i32, float, i32, i32, i32, i32, float, i32, i8, float, i64, i32, i32, float, [2 x i32], [2 x float], float, i8, %"class.std::unique_ptr.21", i8, %"class.std::unique_ptr.29", i8, %"class.std::unique_ptr.37", i32, ptr, i8, ptr, float, [3 x [3 x float]], i32, i32, i32, i32, float, float, float, float, %struct.t_grpopts, i8, i8, i8, i8, ptr, %"class.std::unique_ptr.45" }
%"class.std::vector" = type { %"struct.std::_Vector_base" }
%"struct.std::_Vector_base" = type { %"struct.std::_Vector_base<gmx::MtsLevel, std::allocator<gmx::MtsLevel>>::_Vector_impl" }
%"struct.std::_Vector_base<gmx::MtsLevel, std::allocator<gmx::MtsLevel>>::_Vector_impl" = type { %"struct.std::_Vector_base<gmx::MtsLevel, std::allocator<gmx::MtsLevel>>::_Vector_impl_data" }
%"struct.std::_Vector_base<gmx::MtsLevel, std::allocator<gmx::MtsLevel>>::_Vector_impl_data" = type { ptr, ptr, ptr }
%struct.PressureCouplingOptions = type { i32, i32, i32, float, [3 x [3 x float]], [3 x [3 x float]], i32 }
%"class.std::unique_ptr" = type { %"struct.std::__uniq_ptr_data" }
%"struct.std::__uniq_ptr_data" = type { %"class.std::__uniq_ptr_impl" }
%"class.std::__uniq_ptr_impl" = type { %"class.std::tuple" }
%"class.std::tuple" = type { %"struct.std::_Tuple_impl" }
%"struct.std::_Tuple_impl" = type { %"struct.std::_Head_base.4" }
%"struct.std::_Head_base.4" = type { ptr }
%"class.std::unique_ptr.5" = type { %"struct.std::__uniq_ptr_data.6" }
%"struct.std::__uniq_ptr_data.6" = type { %"class.std::__uniq_ptr_impl.7" }
%"class.std::__uniq_ptr_impl.7" = type { %"class.std::tuple.8" }
%"class.std::tuple.8" = type { %"struct.std::_Tuple_impl.9" }
%"struct.std::_Tuple_impl.9" = type { %"struct.std::_Head_base.12" }
%"struct.std::_Head_base.12" = type { ptr }
%"class.std::unique_ptr.13" = type { %"struct.std::__uniq_ptr_data.14" }
%"struct.std::__uniq_ptr_data.14" = type { %"class.std::__uniq_ptr_impl.15" }
%"class.std::__uniq_ptr_impl.15" = type { %"class.std::tuple.16" }
%"class.std::tuple.16" = type { %"struct.std::_Tuple_impl.17" }
%"struct.std::_Tuple_impl.17" = type { %"struct.std::_Head_base.20" }
%"struct.std::_Head_base.20" = type { ptr }
%"class.std::unique_ptr.21" = type { %"struct.std::__uniq_ptr_data.22" }
%"struct.std::__uniq_ptr_data.22" = type { %"class.std::__uniq_ptr_impl.23" }
%"class.std::__uniq_ptr_impl.23" = type { %"class.std::tuple.24" }
%"class.std::tuple.24" = type { %"struct.std::_Tuple_impl.25" }
%"struct.std::_Tuple_impl.25" = type { %"struct.std::_Head_base.28" }
%"struct.std::_Head_base.28" = type { ptr }
%"class.std::unique_ptr.29" = type { %"struct.std::__uniq_ptr_data.30" }
%"struct.std::__uniq_ptr_data.30" = type { %"class.std::__uniq_ptr_impl.31" }
%"class.std::__uniq_ptr_impl.31" = type { %"class.std::tuple.32" }
%"class.std::tuple.32" = type { %"struct.std::_Tuple_impl.33" }
%"struct.std::_Tuple_impl.33" = type { %"struct.std::_Head_base.36" }
%"struct.std::_Head_base.36" = type { ptr }
%"class.std::unique_ptr.37" = type { %"struct.std::__uniq_ptr_data.38" }
%"struct.std::__uniq_ptr_data.38" = type { %"class.std::__uniq_ptr_impl.39" }
%"class.std::__uniq_ptr_impl.39" = type { %"class.std::tuple.40" }
%"class.std::tuple.40" = type { %"struct.std::_Tuple_impl.41" }
%"struct.std::_Tuple_impl.41" = type { %"struct.std::_Head_base.44" }
%"struct.std::_Head_base.44" = type { ptr }
%struct.t_grpopts = type <{ i32, i32, i32, i32, i32, [4 x i8], ptr, ptr, ptr, ptr, ptr, ptr, ptr, ptr, ptr, ptr, i32, [4 x i8] }>
%"class.std::unique_ptr.45" = type { %"struct.std::__uniq_ptr_data.46" }
%"struct.std::__uniq_ptr_data.46" = type { %"class.std::__uniq_ptr_impl.47" }
%"class.std::__uniq_ptr_impl.47" = type { %"class.std::tuple.48" }
%"class.std::tuple.48" = type { %"struct.std::_Tuple_impl.49" }
%"struct.std::_Tuple_impl.49" = type { %"struct.std::_Head_base.52" }
%"struct.std::_Head_base.52" = type { ptr }
%"class.gmx::LogWriteHelper" = type { ptr }
%"class.gmx::LogEntryWriter" = type { %"struct.gmx::LogEntry" }
%"struct.gmx::LogEntry" = type <{ %"class.std::__cxx11::basic_string", i8, [7 x i8] }>
%struct.PairlistParams = type { i32, i8, float, float, i8, i8, i32, i32, i32, i32 }
%"class.gmx::MDLogger" = type { %"class.gmx::LogLevelHelper", %"class.gmx::LogLevelHelper", %"class.gmx::LogLevelHelper", %"class.gmx::LogLevelHelper", %"class.gmx::LogLevelHelper" }
%"class.gmx::LogLevelHelper" = type { ptr }

@_ZL23IClusterSizePerListType = internal constant %"struct.gmx::EnumerationArray.142" { [4 x i32] [i32 4, i32 4, i32 4, i32 8] }, align 4
@_ZL23JClusterSizePerListType = internal constant %"struct.gmx::EnumerationArray.142" { [4 x i32] [i32 2, i32 4, i32 8, i32 8] }, align 4
@_ZL20sc_isGpuPairListType = internal constant %"struct.gmx::EnumerationArray.143" { [4 x i8] c"\00\00\00\01" }, align 1
@.str.59 = private unnamed_addr constant [79 x i8] c"The average pressure is off by at most %.2f bar due to missing LJ interactions\00", align 1

; Function Attrs: mustprogress nounwind uwtable
define linkonce_odr void @_ZN3gmx8LogEntryD2Ev(ptr noundef nonnull align 8 dereferenceable(33) %0) unnamed_addr #3 comdat align 2 {
  %2 = alloca ptr, align 8
  store ptr %0, ptr %2, align 8
  %3 = load ptr, ptr %2, align 8
  %4 = getelementptr inbounds %"struct.gmx::LogEntry", ptr %3, i32 0, i32 0
  call void @_ZNSt7__cxx1112basic_stringIcSt11char_traitsIcESaIcEED1Ev(ptr noundef nonnull align 8 dereferenceable(32) %4) #4
  ret void
}

; Function Attrs: mustprogress nounwind uwtable
define linkonce_odr void @_ZN3gmx8LogEntryC2Ev(ptr noundef nonnull align 8 dereferenceable(33) %0) unnamed_addr #3 comdat align 2 {
  %2 = alloca ptr, align 8
  store ptr %0, ptr %2, align 8
  %3 = load ptr, ptr %2, align 8
  %4 = getelementptr inbounds %"struct.gmx::LogEntry", ptr %3, i32 0, i32 0
  call void @_ZNSt7__cxx1112basic_stringIcSt11char_traitsIcESaIcEEC1Ev(ptr noundef nonnull align 8 dereferenceable(32) %4) #4
  %5 = getelementptr inbounds %"struct.gmx::LogEntry", ptr %3, i32 0, i32 1
  store i8 0, ptr %5, align 8
  ret void
}

; Function Attrs: mustprogress nounwind uwtable
define linkonce_odr void @_ZN3gmx14LogWriteHelperC2EPNS_10ILogTargetE(ptr noundef nonnull align 8 dereferenceable(8) %0, ptr noundef %1) unnamed_addr #3 comdat align 2 {
  %3 = alloca ptr, align 8
  %4 = alloca ptr, align 8
  store ptr %0, ptr %3, align 8
  store ptr %1, ptr %4, align 8
  %5 = load ptr, ptr %3, align 8
  %6 = getelementptr inbounds %"class.gmx::LogWriteHelper", ptr %5, i32 0, i32 0
  %7 = load ptr, ptr %4, align 8
  store ptr %7, ptr %6, align 8
  ret void
}

; Function Attrs: mustprogress nounwind uwtable
define linkonce_odr void @_ZN3gmx14LogEntryWriterD2Ev(ptr noundef nonnull align 8 dereferenceable(40) %0) unnamed_addr #3 comdat align 2 {
  %2 = alloca ptr, align 8
  store ptr %0, ptr %2, align 8
  %3 = load ptr, ptr %2, align 8
  %4 = getelementptr inbounds %"class.gmx::LogEntryWriter", ptr %3, i32 0, i32 0
  call void @_ZN3gmx8LogEntryD2Ev(ptr noundef nonnull align 8 dereferenceable(33) %4) #4
  ret void
}

; Function Attrs: mustprogress uwtable
define linkonce_odr noundef nonnull align 8 dereferenceable(8) ptr @_ZN3gmx14LogWriteHelperaSERKNS_14LogEntryWriterE(ptr noundef nonnull align 8 dereferenceable(8) %0, ptr noundef nonnull align 8 dereferenceable(40) %1) #2 comdat align 2 {
  %3 = alloca ptr, align 8
  %4 = alloca ptr, align 8
  store ptr %0, ptr %3, align 8
  store ptr %1, ptr %4, align 8
  %5 = load ptr, ptr %3, align 8
  %6 = getelementptr inbounds %"class.gmx::LogWriteHelper", ptr %5, i32 0, i32 0
  %7 = load ptr, ptr %6, align 8
  %8 = load ptr, ptr %4, align 8
  %9 = getelementptr inbounds %"class.gmx::LogEntryWriter", ptr %8, i32 0, i32 0
  %10 = load ptr, ptr %7, align 8
  %11 = getelementptr inbounds ptr, ptr %10, i64 2
  %12 = load ptr, ptr %11, align 8
  call void %12(ptr noundef nonnull align 8 dereferenceable(8) %7, ptr noundef nonnull align 8 dereferenceable(33) %9)
  ret ptr %5
}

; Function Attrs: mustprogress uwtable
define linkonce_odr noundef nonnull align 8 dereferenceable(40) ptr @_ZN3gmx14LogEntryWriter10appendTextERKNSt7__cxx1112basic_stringIcSt11char_traitsIcESaIcEEE(ptr noundef nonnull align 8 dereferenceable(40) %0, ptr noundef nonnull align 8 dereferenceable(32) %1) #2 comdat align 2 {
  %3 = alloca ptr, align 8
  %4 = alloca ptr, align 8
  store ptr %0, ptr %3, align 8
  store ptr %1, ptr %4, align 8
  %5 = load ptr, ptr %3, align 8
  %6 = getelementptr inbounds %"class.gmx::LogEntryWriter", ptr %5, i32 0, i32 0
  %7 = getelementptr inbounds %"struct.gmx::LogEntry", ptr %6, i32 0, i32 0
  %8 = load ptr, ptr %4, align 8
  %9 = call noundef nonnull align 8 dereferenceable(32) ptr @_ZNSt7__cxx1112basic_stringIcSt11char_traitsIcESaIcEE6appendERKS4_(ptr noundef nonnull align 8 dereferenceable(32) %7, ptr noundef nonnull align 8 dereferenceable(32) %8)
  ret ptr %5
}

; Function Attrs: mustprogress nounwind uwtable
define linkonce_odr noundef nonnull align 8 dereferenceable(40) ptr @_ZN3gmx14LogEntryWriter11asParagraphEv(ptr noundef nonnull align 8 dereferenceable(40) %0) #3 comdat align 2 {
  %2 = alloca ptr, align 8
  store ptr %0, ptr %2, align 8
  %3 = load ptr, ptr %2, align 8
  %4 = getelementptr inbounds %"class.gmx::LogEntryWriter", ptr %3, i32 0, i32 0
  %5 = getelementptr inbounds %"struct.gmx::LogEntry", ptr %4, i32 0, i32 1
  store i8 1, ptr %5, align 8
  ret ptr %3
}

; Function Attrs: mustprogress uwtable
define linkonce_odr void @_ZN3gmx14LogEntryWriterC2Ev(ptr noundef nonnull align 8 dereferenceable(40) %0) unnamed_addr #2 comdat align 2 {
  %2 = alloca ptr, align 8
  store ptr %0, ptr %2, align 8
  %3 = load ptr, ptr %2, align 8
  %4 = getelementptr inbounds %"class.gmx::LogEntryWriter", ptr %3, i32 0, i32 0
  call void @_ZN3gmx8LogEntryC2Ev(ptr noundef nonnull align 8 dereferenceable(33) %4)
  ret void
}

; Function Attrs: mustprogress nounwind uwtable
define linkonce_odr noundef zeroext i1 @_ZNK3gmx14LogWriteHelpercvbEv(ptr noundef nonnull align 8 dereferenceable(8) %0) #3 comdat align 2 {
  %2 = alloca ptr, align 8
  store ptr %0, ptr %2, align 8
  %3 = load ptr, ptr %2, align 8
  %4 = getelementptr inbounds %"class.gmx::LogWriteHelper", ptr %3, i32 0, i32 0
  %5 = load ptr, ptr %4, align 8
  %6 = icmp eq ptr %5, null
  ret i1 %6
}

; Function Attrs: mustprogress uwtable
define linkonce_odr ptr @_ZNK3gmx14LogLevelHelpercvNS_14LogWriteHelperEEv(ptr noundef nonnull align 8 dereferenceable(8) %0) #2 comdat align 2 {
  %2 = alloca %"class.gmx::LogWriteHelper", align 8
  %3 = alloca ptr, align 8
  store ptr %0, ptr %3, align 8
  %4 = load ptr, ptr %3, align 8
  %5 = getelementptr inbounds %"class.gmx::LogLevelHelper", ptr %4, i32 0, i32 0
  %6 = load ptr, ptr %5, align 8
  call void @_ZN3gmx14LogWriteHelperC2EPNS_10ILogTargetE(ptr noundef nonnull align 8 dereferenceable(8) %2, ptr noundef %6)
  %7 = getelementptr inbounds %"class.gmx::LogWriteHelper", ptr %2, i32 0, i32 0
  %8 = load ptr, ptr %7, align 8
  ret ptr %8
}

; Function Attrs: mustprogress nounwind uwtable
define linkonce_odr noundef nonnull align 1 dereferenceable(1) ptr @_ZNK3gmx16EnumerationArrayI12PairlistTypebLS1_4EEixES1_(ptr noundef nonnull align 1 dereferenceable(4) %0, i32 noundef %1) #3 comdat align 2 {
  %3 = alloca ptr, align 8
  %4 = alloca i32, align 4
  store ptr %0, ptr %3, align 8
  store i32 %1, ptr %4, align 4
  %5 = load ptr, ptr %3, align 8
  %6 = getelementptr inbounds %"struct.gmx::EnumerationArray.143", ptr %5, i32 0, i32 0
  %7 = load i32, ptr %4, align 4
  %8 = sext i32 %7 to i64
  %9 = getelementptr inbounds [4 x i8], ptr %6, i64 0, i64 %8
  ret ptr %9
}

; Function Attrs: mustprogress nounwind uwtable
define linkonce_odr noundef nonnull align 4 dereferenceable(4) ptr @_ZNK3gmx16EnumerationArrayI12PairlistTypeiLS1_4EEixES1_(ptr noundef nonnull align 4 dereferenceable(16) %0, i32 noundef %1) #3 comdat align 2 {
  %3 = alloca ptr, align 8
  %4 = alloca i32, align 4
  store ptr %0, ptr %3, align 8
  store i32 %1, ptr %4, align 4
  %5 = load ptr, ptr %3, align 8
  %6 = getelementptr inbounds %"struct.gmx::EnumerationArray.142", ptr %5, i32 0, i32 0
  %7 = load i32, ptr %4, align 4
  %8 = sext i32 %7 to i64
  %9 = getelementptr inbounds [4 x i32], ptr %6, i64 0, i64 %8
  ret ptr %9
}

; Function Attrs: mustprogress uwtable
define void @_Z23printNbnxmPressureErrorRKN3gmx8MDLoggerERK10t_inputrecRK10gmx_mtop_tfRK14PairlistParams(ptr noundef nonnull align 8 dereferenceable(40) %0, ptr noundef nonnull align 8 dereferenceable(856) %1, ptr noundef nonnull align 8 dereferenceable(768) %2, float noundef %3, ptr noundef nonnull align 4 dereferenceable(36) %4) #2 personality ptr @__gxx_personality_v0 {
  %6 = alloca ptr, align 8
  %7 = alloca ptr, align 8
  %8 = alloca ptr, align 8
  %9 = alloca float, align 4
  %10 = alloca ptr, align 8
  %11 = alloca %struct.VerletbufListSetup, align 4
  %12 = alloca float, align 4
  %13 = alloca i8, align 1
  %14 = alloca %"class.gmx::LogWriteHelper", align 8
  %15 = alloca %"class.gmx::LogEntryWriter", align 8
  %16 = alloca %"class.std::__cxx11::basic_string", align 8
  %17 = alloca ptr, align 8
  %18 = alloca i32, align 4
  store ptr %0, ptr %6, align 8
  store ptr %1, ptr %7, align 8
  store ptr %2, ptr %8, align 8
  store float %3, ptr %9, align 4
  store ptr %4, ptr %10, align 8
  %19 = getelementptr inbounds %struct.VerletbufListSetup, ptr %11, i32 0, i32 0
  %20 = load ptr, ptr %10, align 8
  %21 = getelementptr inbounds %struct.PairlistParams, ptr %20, i32 0, i32 0
  %22 = load i32, ptr %21, align 4
  %23 = call noundef nonnull align 4 dereferenceable(4) ptr @_ZNK3gmx16EnumerationArrayI12PairlistTypeiLS1_4EEixES1_(ptr noundef nonnull align 4 dereferenceable(16) @_ZL23IClusterSizePerListType, i32 noundef %22)
  %24 = load i32, ptr %23, align 4
  store i32 %24, ptr %19, align 4
  %25 = getelementptr inbounds %struct.VerletbufListSetup, ptr %11, i32 0, i32 1
  %26 = load ptr, ptr %10, align 8
  %27 = getelementptr inbounds %struct.PairlistParams, ptr %26, i32 0, i32 0
  %28 = load i32, ptr %27, align 4
  %29 = call noundef nonnull align 4 dereferenceable(4) ptr @_ZNK3gmx16EnumerationArrayI12PairlistTypeiLS1_4EEixES1_(ptr noundef nonnull align 4 dereferenceable(16) @_ZL23JClusterSizePerListType, i32 noundef %28)
  %30 = load i32, ptr %29, align 4
  store i32 %30, ptr %25, align 4
  %31 = load ptr, ptr %8, align 8
  %32 = load float, ptr %9, align 4
  %33 = load ptr, ptr %7, align 8
  %34 = load ptr, ptr %7, align 8
  %35 = getelementptr inbounds %struct.t_inputrec, ptr %34, i32 0, i32 7
  %36 = load i32, ptr %35, align 8
  %37 = load ptr, ptr %10, align 8
  %38 = getelementptr inbounds %struct.PairlistParams, ptr %37, i32 0, i32 2
  %39 = load float, ptr %38, align 4
  %40 = call noundef float @_Z25verletBufferPressureErrorRK10gmx_mtop_tfRK10t_inputrecibfRK18VerletbufListSetup(ptr noundef nonnull align 8 dereferenceable(768) %31, float noundef %32, ptr noundef nonnull align 8 dereferenceable(856) %33, i32 noundef %36, i1 noundef zeroext false, float noundef %39, ptr noundef nonnull align 4 dereferenceable(8) %11)
  store float %40, ptr %12, align 4
  %41 = load ptr, ptr %10, align 8
  %42 = getelementptr inbounds %struct.PairlistParams, ptr %41, i32 0, i32 5
  %43 = load i8, ptr %42, align 1
  %44 = trunc i8 %43 to i1
  br i1 %44, label %45, label %67

45:                                               ; preds = %5
  %46 = load ptr, ptr %10, align 8
  %47 = getelementptr inbounds %struct.PairlistParams, ptr %46, i32 0, i32 0
  %48 = load i32, ptr %47, align 4
  %49 = call noundef nonnull align 1 dereferenceable(1) ptr @_ZNK3gmx16EnumerationArrayI12PairlistTypebLS1_4EEixES1_(ptr noundef nonnull align 1 dereferenceable(4) @_ZL20sc_isGpuPairListType, i32 noundef %48)
  %50 = load i8, ptr %49, align 1
  %51 = trunc i8 %50 to i1
  %52 = zext i1 %51 to i8
  store i8 %52, ptr %13, align 1
  %53 = load ptr, ptr %8, align 8
  %54 = load float, ptr %9, align 4
  %55 = load ptr, ptr %7, align 8
  %56 = load ptr, ptr %10, align 8
  %57 = getelementptr inbounds %struct.PairlistParams, ptr %56, i32 0, i32 7
  %58 = load i32, ptr %57, align 4
  %59 = load i8, ptr %13, align 1
  %60 = trunc i8 %59 to i1
  %61 = load ptr, ptr %10, align 8
  %62 = getelementptr inbounds %struct.PairlistParams, ptr %61, i32 0, i32 3
  %63 = load float, ptr %62, align 4
  %64 = call noundef float @_Z25verletBufferPressureErrorRK10gmx_mtop_tfRK10t_inputrecibfRK18VerletbufListSetup(ptr noundef nonnull align 8 dereferenceable(768) %53, float noundef %54, ptr noundef nonnull align 8 dereferenceable(856) %55, i32 noundef %58, i1 noundef zeroext %60, float noundef %63, ptr noundef nonnull align 4 dereferenceable(8) %11)
  %65 = load float, ptr %12, align 4
  %66 = fadd float %65, %64
  store float %66, ptr %12, align 4
  br label %67

67:                                               ; preds = %45, %5
  %68 = load ptr, ptr %6, align 8
  %69 = getelementptr inbounds %"class.gmx::MDLogger", ptr %68, i32 0, i32 4
  %70 = call ptr @_ZNK3gmx14LogLevelHelpercvNS_14LogWriteHelperEEv(ptr noundef nonnull align 8 dereferenceable(8) %69)
  %71 = getelementptr inbounds %"class.gmx::LogWriteHelper", ptr %14, i32 0, i32 0
  store ptr %70, ptr %71, align 8
  %72 = call noundef zeroext i1 @_ZNK3gmx14LogWriteHelpercvbEv(ptr noundef nonnull align 8 dereferenceable(8) %14)
  br i1 %72, label %73, label %74

73:                                               ; preds = %67
  br label %92

74:                                               ; preds = %67
  call void @llvm.memset.p0.i64(ptr align 8 %15, i8 0, i64 40, i1 false)
  call void @_ZN3gmx14LogEntryWriterC2Ev(ptr noundef nonnull align 8 dereferenceable(40) %15)
  %75 = call noundef nonnull align 8 dereferenceable(40) ptr @_ZN3gmx14LogEntryWriter11asParagraphEv(ptr noundef nonnull align 8 dereferenceable(40) %15)
  %76 = load float, ptr %12, align 4
  %77 = fpext float %76 to double
  invoke void (ptr, ptr, ...) @_ZN3gmx12formatStringB5cxx11EPKcz(ptr dead_on_unwind writable sret(%"class.std::__cxx11::basic_string") align 8 %16, ptr noundef @.str.59, double noundef %77)
          to label %78 unwind label %83

78:                                               ; preds = %74
  %79 = invoke noundef nonnull align 8 dereferenceable(40) ptr @_ZN3gmx14LogEntryWriter10appendTextERKNSt7__cxx1112basic_stringIcSt11char_traitsIcESaIcEEE(ptr noundef nonnull align 8 dereferenceable(40) %75, ptr noundef nonnull align 8 dereferenceable(32) %16)
          to label %80 unwind label %87

80:                                               ; preds = %78
  %81 = invoke noundef nonnull align 8 dereferenceable(8) ptr @_ZN3gmx14LogWriteHelperaSERKNS_14LogEntryWriterE(ptr noundef nonnull align 8 dereferenceable(8) %14, ptr noundef nonnull align 8 dereferenceable(40) %79)
          to label %82 unwind label %87

82:                                               ; preds = %80
  call void @_ZNSt7__cxx1112basic_stringIcSt11char_traitsIcESaIcEED1Ev(ptr noundef nonnull align 8 dereferenceable(32) %16) #4
  call void @_ZN3gmx14LogEntryWriterD2Ev(ptr noundef nonnull align 8 dereferenceable(40) %15) #4
  br label %92

83:                                               ; preds = %74
  %84 = landingpad { ptr, i32 }
          cleanup
  %85 = extractvalue { ptr, i32 } %84, 0
  store ptr %85, ptr %17, align 8
  %86 = extractvalue { ptr, i32 } %84, 1
  store i32 %86, ptr %18, align 4
  br label %91

87:                                               ; preds = %80, %78
  %88 = landingpad { ptr, i32 }
          cleanup
  %89 = extractvalue { ptr, i32 } %88, 0
  store ptr %89, ptr %17, align 8
  %90 = extractvalue { ptr, i32 } %88, 1
  store i32 %90, ptr %18, align 4
  call void @_ZNSt7__cxx1112basic_stringIcSt11char_traitsIcESaIcEED1Ev(ptr noundef nonnull align 8 dereferenceable(32) %16) #4
  br label %91

91:                                               ; preds = %87, %83
  call void @_ZN3gmx14LogEntryWriterD2Ev(ptr noundef nonnull align 8 dereferenceable(40) %15) #4
  br label %93

92:                                               ; preds = %82, %73
  ret void

93:                                               ; preds = %91
  %94 = load ptr, ptr %17, align 8
  %95 = load i32, ptr %18, align 4
  %96 = insertvalue { ptr, i32 } poison, ptr %94, 0
  %97 = insertvalue { ptr, i32 } %96, i32 %95, 1
  resume { ptr, i32 } %97
}