; Function Attrs: mustprogress uwtable
define void @_Z23printNbnxmPressureErrorRKN3gmx8MDLoggerERK10t_inputrecRK10gmx_mtop_tfRK14PairlistParams(ptr nocapture noundef nonnull readonly align 8 dereferenceable(40) %0, ptr noundef nonnull align 8 dereferenceable(856) %1, ptr noundef nonnull align 8 dereferenceable(768) %2, float noundef %3, ptr nocapture noundef nonnull readonly align 4 dereferenceable(36) %4) local_unnamed_addr #1 personality ptr @__gxx_personality_v0 {
  %6 = alloca %struct.VerletbufListSetup, align 4
  %7 = alloca %"class.gmx::LogEntryWriter", align 8
  %8 = alloca %"class.std::__cxx11::basic_string", align 8
  %9 = load i32, ptr %4, align 4
  %10 = sext i32 %9 to i64
  %11 = getelementptr inbounds [4 x i32], ptr @_ZL23IClusterSizePerListType, i64 0, i64 %10
  %12 = load i32, ptr %11, align 4
  store i32 %12, ptr %6, align 4
  %13 = getelementptr inbounds i8, ptr %6, i64 4
  %14 = getelementptr inbounds [4 x i32], ptr @_ZL23JClusterSizePerListType, i64 0, i64 %10
  %15 = load i32, ptr %14, align 4
  store i32 %15, ptr %13, align 4
  %16 = getelementptr inbounds i8, ptr %1, i64 40
  %17 = load i32, ptr %16, align 8
  %18 = getelementptr inbounds i8, ptr %4, i64 8
  %19 = load float, ptr %18, align 4
  %20 = call noundef float @_Z25verletBufferPressureErrorRK10gmx_mtop_tfRK10t_inputrecibfRK18VerletbufListSetup(ptr noundef nonnull align 8 dereferenceable(768) %2, float noundef %3, ptr noundef nonnull align 8 dereferenceable(856) %1, i32 noundef %17, i1 noundef zeroext false, float noundef %19, ptr noundef nonnull align 4 dereferenceable(8) %6)
  %21 = getelementptr inbounds i8, ptr %4, i64 17
  %22 = load i8, ptr %21, align 1
  %23 = trunc i8 %22 to i1
  br i1 %23, label %24, label %36

24:                                               ; preds = %5
  %25 = load i32, ptr %4, align 4
  %26 = sext i32 %25 to i64
  %27 = getelementptr inbounds [4 x i8], ptr @_ZL20sc_isGpuPairListType, i64 0, i64 %26
  %28 = load i8, ptr %27, align 1
  %29 = trunc i8 %28 to i1
  %30 = getelementptr inbounds i8, ptr %4, i64 24
  %31 = load i32, ptr %30, align 4
  %32 = getelementptr inbounds i8, ptr %4, i64 12
  %33 = load float, ptr %32, align 4
  %34 = call noundef float @_Z25verletBufferPressureErrorRK10gmx_mtop_tfRK10t_inputrecibfRK18VerletbufListSetup(ptr noundef nonnull align 8 dereferenceable(768) %2, float noundef %3, ptr noundef nonnull align 8 dereferenceable(856) %1, i32 noundef %31, i1 noundef zeroext %29, float noundef %33, ptr noundef nonnull align 4 dereferenceable(8) %6)
  %35 = fadd float %20, %34
  br label %36

36:                                               ; preds = %24, %5
  %.020 = phi float [ %35, %24 ], [ %20, %5 ]
  %37 = getelementptr inbounds i8, ptr %0, i64 32
  %38 = load ptr, ptr %37, align 8
  %39 = icmp eq ptr %38, null
  br i1 %39, label %53, label %40

40:                                               ; preds = %36
  call void @llvm.memset.p0.i64(ptr noundef nonnull align 8 dereferenceable(40) %7, i8 0, i64 40, i1 false)
  call void @_ZNSt7__cxx1112basic_stringIcSt11char_traitsIcESaIcEEC1Ev(ptr noundef nonnull align 8 dereferenceable(32) %7) #21
  %41 = getelementptr inbounds i8, ptr %7, i64 32
  store i8 1, ptr %41, align 8
  %42 = fpext float %.020 to double
  invoke void (ptr, ptr, ...) @_ZN3gmx12formatStringB5cxx11EPKcz(ptr dead_on_unwind nonnull writable sret(%"class.std::__cxx11::basic_string") align 8 %8, ptr noundef nonnull @.str.59, double noundef %42)
          to label %43 unwind label %48

43:                                               ; preds = %40
  %44 = invoke noundef nonnull align 8 dereferenceable(32) ptr @_ZNSt7__cxx1112basic_stringIcSt11char_traitsIcESaIcEE6appendERKS4_(ptr noundef nonnull align 8 dereferenceable(32) %7, ptr noundef nonnull align 8 dereferenceable(32) %8)
          to label %_ZN3gmx14LogEntryWriter10appendTextERKNSt7__cxx1112basic_stringIcSt11char_traitsIcESaIcEEE.exit unwind label %50

_ZN3gmx14LogEntryWriter10appendTextERKNSt7__cxx1112basic_stringIcSt11char_traitsIcESaIcEEE.exit: ; preds = %43
  %45 = load ptr, ptr %38, align 8
  %46 = getelementptr inbounds i8, ptr %45, i64 16
  %47 = load ptr, ptr %46, align 8
  invoke void %47(ptr noundef nonnull align 8 dereferenceable(8) %38, ptr noundef nonnull align 8 dereferenceable(33) %7)
          to label %_ZN3gmx14LogWriteHelperaSERKNS_14LogEntryWriterE.exit unwind label %50

_ZN3gmx14LogWriteHelperaSERKNS_14LogEntryWriterE.exit: ; preds = %_ZN3gmx14LogEntryWriter10appendTextERKNSt7__cxx1112basic_stringIcSt11char_traitsIcESaIcEEE.exit
  call void @_ZNSt7__cxx1112basic_stringIcSt11char_traitsIcESaIcEED1Ev(ptr noundef nonnull align 8 dereferenceable(32) %8) #21
  call void @_ZNSt7__cxx1112basic_stringIcSt11char_traitsIcESaIcEED1Ev(ptr noundef nonnull align 8 dereferenceable(32) %7) #21
  br label %53

48:                                               ; preds = %40
  %49 = landingpad { ptr, i32 }
          cleanup
  br label %52

50:                                               ; preds = %_ZN3gmx14LogEntryWriter10appendTextERKNSt7__cxx1112basic_stringIcSt11char_traitsIcESaIcEEE.exit, %43
  %51 = landingpad { ptr, i32 }
          cleanup
  call void @_ZNSt7__cxx1112basic_stringIcSt11char_traitsIcESaIcEED1Ev(ptr noundef nonnull align 8 dereferenceable(32) %8) #21
  br label %52

52:                                               ; preds = %50, %48
  %.pn = phi { ptr, i32 } [ %51, %50 ], [ %49, %48 ]
  call void @_ZNSt7__cxx1112basic_stringIcSt11char_traitsIcESaIcEED1Ev(ptr noundef nonnull align 8 dereferenceable(32) %7) #21
  resume { ptr, i32 } %.pn

53:                                               ; preds = %36, %_ZN3gmx14LogWriteHelperaSERKNS_14LogEntryWriterE.exit
  ret void
}